; Function Attrs: mustprogress uwtable
define void @_ZN5faiss9rand_permEPiml(ptr noundef captures(none) %0, i64 noundef %1, i64 noundef %2) local_unnamed_addr #2 {
  %4 = alloca %"struct.faiss::RandomGenerator", align 8
  %.not = icmp eq i64 %1, 0
  br i1 %.not, label %._crit_edge.thread, label %.lr.ph

._crit_edge.thread:                               ; preds = %3
  call void @llvm.lifetime.start.p0(i64 5000, ptr nonnull %4) #6
  call void @_ZN5faiss15RandomGeneratorC1El(ptr noundef nonnull align 8 dereferenceable(5000) %4, i64 noundef %2)
  br label %._crit_edge24

._crit_edge:                                      ; preds = %.lr.ph
  call void @llvm.lifetime.start.p0(i64 5000, ptr nonnull %4) #6
  call void @_ZN5faiss15RandomGeneratorC1El(ptr noundef nonnull align 8 dereferenceable(5000) %4, i64 noundef %2)
  %.not26 = icmp eq i64 %1, 1
  br i1 %.not26, label %._crit_edge24, label %.lr.ph23

.lr.ph:                                           ; preds = %3, %.lr.ph
  %.020 = phi i64 [ %7, %.lr.ph ], [ 0, %3 ]
  %5 = trunc i64 %.020 to i32
  %6 = getelementptr inbounds nuw i32, ptr %0, i64 %.020
  store i32 %5, ptr %6, align 4, !tbaa !19
  %7 = add nuw i64 %.020, 1
  %exitcond.not = icmp eq i64 %7, %1
  br i1 %exitcond.not, label %._crit_edge, label %.lr.ph, !llvm.loop !32

._crit_edge24:                                    ; preds = %.lr.ph23, %._crit_edge.thread, %._crit_edge
  call void @llvm.lifetime.end.p0(i64 5000, ptr nonnull %4) #6
  ret void

.lr.ph23:                                         ; preds = %._crit_edge, %.lr.ph23
  %8 = phi i64 [ %19, %.lr.ph23 ], [ 1, %._crit_edge ]
  %.01621 = phi i64 [ %8, %.lr.ph23 ], [ 0, %._crit_edge ]
  %9 = sub i64 %1, %.01621
  %10 = call noundef i64 @_ZNSt23mersenne_twister_engineImLm32ELm624ELm397ELm31ELm2567483615ELm11ELm4294967295ELm7ELm2636928640ELm15ELm4022730752ELm18ELm1812433253EEclEv(ptr noundef nonnull align 8 dereferenceable(5000) %4)
  %sext = shl i64 %9, 32
  %11 = ashr exact i64 %sext, 32
  %12 = urem i64 %10, %11
  %13 = add i64 %12, %.01621
  %14 = getelementptr inbounds nuw i32, ptr %0, i64 %.01621
  %sext19 = shl i64 %13, 32
  %15 = ashr exact i64 %sext19, 30
  %16 = getelementptr inbounds i8, ptr %0, i64 %15
  %17 = load i32, ptr %14, align 4, !tbaa !19
  %18 = load i32, ptr %16, align 4, !tbaa !19
  store i32 %18, ptr %14, align 4, !tbaa !19
  store i32 %17, ptr %16, align 4, !tbaa !19
  %19 = add nuw i64 %8, 1
  %exitcond25.not = icmp eq i64 %19, %1
  br i1 %exitcond25.not, label %._crit_edge24, label %.lr.ph23, !llvm.loop !33
}